#include <math.h>
#include <stdio.h>
#include <stdlib.h>
#include <string.h>


void main()
{
	int a[1000],b[1000];
	int i,n,m;
	scanf("%d%d",&n,&m);
	for(i=0;i<n-m;i++)
	{
		scanf("%d", &a[i]);
	}
	for(i=0;i<m;i++)
	{
		scanf("%d", &b[i]);
	}
	for(i=0;i<m;i++)
	{
		printf("%d ", b[i]);
	}
	for(i=0;i<n-m-1;i++)
	{
		printf("%d ", a[i]);
	}
	printf("%d", a[n-m-1]);
}