; ModuleID = 'source-C-CXX/51/6112.c'
source_filename = "source-C-CXX/51/6112.c"
target datalayout = "e-m:e-p270:32:32-p271:32:32-p272:64:64-i64:64-f80:128-n8:16:32:64-S128"
target triple = "x86_64-pc-linux-gnu"

@.str = private unnamed_addr constant [5 x i8] c"%d%d\00", align 1
@.str.1 = private unnamed_addr constant [3 x i8] c"%d\00", align 1
@.str.2 = private unnamed_addr constant [4 x i8] c"%d \00", align 1

; Function Attrs: nofree nounwind sspstrong uwtable
define dso_local void @main() local_unnamed_addr #0 {
  %1 = alloca [1000 x i32], align 16
  %2 = alloca [1000 x i32], align 16
  %3 = alloca i32, align 4
  %4 = alloca i32, align 4
  %5 = bitcast [1000 x i32]* %1 to i8*
  call void @llvm.lifetime.start.p0i8(i64 4000, i8* nonnull %5) #3
  %6 = bitcast [1000 x i32]* %2 to i8*
  call void @llvm.lifetime.start.p0i8(i64 4000, i8* nonnull %6) #3
  %7 = bitcast i32* %3 to i8*
  call void @llvm.lifetime.start.p0i8(i64 4, i8* nonnull %7) #3
  %8 = bitcast i32* %4 to i8*
  call void @llvm.lifetime.start.p0i8(i64 4, i8* nonnull %8) #3
  %9 = call i32 (i8*, ...) @__isoc99_scanf(i8* getelementptr inbounds ([5 x i8], [5 x i8]* @.str, i64 0, i64 0), i32* nonnull %3, i32* nonnull %4)
  %10 = load i32, i32* %3, align 4, !tbaa !5
  %11 = load i32, i32* %4, align 4, !tbaa !5
  %12 = icmp sgt i32 %10, %11
  br i1 %12, label %16, label %13

13:                                               ; preds = %16, %0
  %14 = phi i32 [ %11, %0 ], [ %22, %16 ]
  %15 = icmp sgt i32 %14, 0
  br i1 %15, label %28, label %36

16:                                               ; preds = %0, %16
  %17 = phi i64 [ %20, %16 ], [ 0, %0 ]
  %18 = getelementptr inbounds [1000 x i32], [1000 x i32]* %1, i64 0, i64 %17
  %19 = call i32 (i8*, ...) @__isoc99_scanf(i8* getelementptr inbounds ([3 x i8], [3 x i8]* @.str.1, i64 0, i64 0), i32* nonnull %18)
  %20 = add nuw nsw i64 %17, 1
  %21 = load i32, i32* %3, align 4, !tbaa !5
  %22 = load i32, i32* %4, align 4, !tbaa !5
  %23 = sub nsw i32 %21, %22
  %24 = sext i32 %23 to i64
  %25 = icmp slt i64 %20, %24
  br i1 %25, label %16, label %13, !llvm.loop !9

26:                                               ; preds = %28
  %27 = icmp sgt i32 %33, 0
  br i1 %27, label %44, label %36

28:                                               ; preds = %13, %28
  %29 = phi i64 [ %32, %28 ], [ 0, %13 ]
  %30 = getelementptr inbounds [1000 x i32], [1000 x i32]* %2, i64 0, i64 %29
  %31 = call i32 (i8*, ...) @__isoc99_scanf(i8* getelementptr inbounds ([3 x i8], [3 x i8]* @.str.1, i64 0, i64 0), i32* nonnull %30)
  %32 = add nuw nsw i64 %29, 1
  %33 = load i32, i32* %4, align 4, !tbaa !5
  %34 = sext i32 %33 to i64
  %35 = icmp slt i64 %32, %34
  br i1 %35, label %28, label %26, !llvm.loop !11

36:                                               ; preds = %44, %13, %26
  %37 = phi i32 [ %33, %26 ], [ %14, %13 ], [ %50, %44 ]
  %38 = load i32, i32* %3, align 4, !tbaa !5
  %39 = xor i32 %37, -1
  %40 = add i32 %38, %39
  %41 = icmp sgt i32 %40, 0
  br i1 %41, label %53, label %42

42:                                               ; preds = %36
  %43 = sext i32 %40 to i64
  br label %65

44:                                               ; preds = %26, %44
  %45 = phi i64 [ %49, %44 ], [ 0, %26 ]
  %46 = getelementptr inbounds [1000 x i32], [1000 x i32]* %2, i64 0, i64 %45
  %47 = load i32, i32* %46, align 4, !tbaa !5
  %48 = call i32 (i8*, ...) @printf(i8* nonnull dereferenceable(1) getelementptr inbounds ([4 x i8], [4 x i8]* @.str.2, i64 0, i64 0), i32 %47)
  %49 = add nuw nsw i64 %45, 1
  %50 = load i32, i32* %4, align 4, !tbaa !5
  %51 = sext i32 %50 to i64
  %52 = icmp slt i64 %49, %51
  br i1 %52, label %44, label %36, !llvm.loop !12

53:                                               ; preds = %36, %53
  %54 = phi i64 [ %58, %53 ], [ 0, %36 ]
  %55 = getelementptr inbounds [1000 x i32], [1000 x i32]* %1, i64 0, i64 %54
  %56 = load i32, i32* %55, align 4, !tbaa !5
  %57 = call i32 (i8*, ...) @printf(i8* nonnull dereferenceable(1) getelementptr inbounds ([4 x i8], [4 x i8]* @.str.2, i64 0, i64 0), i32 %56)
  %58 = add nuw nsw i64 %54, 1
  %59 = load i32, i32* %3, align 4, !tbaa !5
  %60 = load i32, i32* %4, align 4, !tbaa !5
  %61 = xor i32 %60, -1
  %62 = add i32 %59, %61
  %63 = sext i32 %62 to i64
  %64 = icmp slt i64 %58, %63
  br i1 %64, label %53, label %65, !llvm.loop !13

65:                                               ; preds = %53, %42
  %66 = phi i64 [ %43, %42 ], [ %63, %53 ]
  %67 = getelementptr inbounds [1000 x i32], [1000 x i32]* %1, i64 0, i64 %66
  %68 = load i32, i32* %67, align 4, !tbaa !5
  %69 = call i32 (i8*, ...) @printf(i8* nonnull dereferenceable(1) getelementptr inbounds ([3 x i8], [3 x i8]* @.str.1, i64 0, i64 0), i32 %68)
  call void @llvm.lifetime.end.p0i8(i64 4, i8* nonnull %8) #3
  call void @llvm.lifetime.end.p0i8(i64 4, i8* nonnull %7) #3
  call void @llvm.lifetime.end.p0i8(i64 4000, i8* nonnull %6) #3
  call void @llvm.lifetime.end.p0i8(i64 4000, i8* nonnull %5) #3
  ret void
}

; Function Attrs: argmemonly mustprogress nofree nosync nounwind willreturn
declare void @llvm.lifetime.start.p0i8(i64 immarg, i8* nocapture) #1

; Function Attrs: nofree nounwind
declare noundef i32 @__isoc99_scanf(i8* nocapture noundef readonly, ...) local_unnamed_addr #2

; Function Attrs: nofree nounwind
declare noundef i32 @printf(i8* nocapture noundef readonly, ...) local_unnamed_addr #2

; Function Attrs: argmemonly mustprogress nofree nosync nounwind willreturn
declare void @llvm.lifetime.end.p0i8(i64 immarg, i8* nocapture) #1


!llvm.module.flags = !{!0, !1, !2, !3}
!llvm.ident = !{!4}

!0 = !{i32 1, !"wchar_size", i32 4}
!1 = !{i32 7, !"PIC Level", i32 2}
!2 = !{i32 7, !"PIE Level", i32 2}
!3 = !{i32 7, !"uwtable", i32 1}
!4 = !{!"clang version 13.0.0"}
!5 = !{!6, !6, i64 0}
!6 = !{!"int", !7, i64 0}
!7 = !{!"omnipotent char", !8, i64 0}
!8 = !{!"Simple C/C++ TBAA"}
!9 = distinct !{!9, !10}
!10 = !{!"llvm.loop.mustprogress"}
!11 = distinct !{!11, !10}
!12 = distinct !{!12, !10}
!13 = distinct !{!13, !10}
